; Function Attrs: nounwind uwtable
define ptr @l_Int_Linear_Poly_mul(ptr noundef %0, ptr noundef %1) local_unnamed_addr #1 {
  %3 = load ptr, ptr @l_Int_Linear_instInhabitedExpr___closed__1, align 8, !tbaa !11
  %4 = ptrtoint ptr %1 to i64
  %5 = ptrtoint ptr %3 to i64
  %6 = and i64 %4, 1
  %7 = and i64 %6, %5
  %or.cond.not.i.i = icmp eq i64 %7, 0
  br i1 %or.cond.not.i.i, label %lean_int_dec_eq.exit, label %8, !prof !13

8:                                                ; preds = %2
  %9 = icmp eq ptr %1, %3
  br i1 %9, label %13, label %11

lean_int_dec_eq.exit:                             ; preds = %2
  %10 = tail call zeroext i1 @lean_int_big_eq(ptr noundef %1, ptr noundef %3) #5
  br i1 %10, label %13, label %11

11:                                               ; preds = %8, %lean_int_dec_eq.exit
  %12 = tail call ptr @l_Int_Linear_Poly_mul_x27(ptr noundef %0, ptr noundef %1)
  br label %24

13:                                               ; preds = %8, %lean_int_dec_eq.exit
  %14 = ptrtoint ptr %0 to i64
  %15 = and i64 %14, 1
  %.not = icmp eq i64 %15, 0
  br i1 %.not, label %16, label %lean_dec.exit

16:                                               ; preds = %13
  %17 = load i32, ptr %0, align 4, !tbaa !6
  %18 = icmp sgt i32 %17, 1
  br i1 %18, label %19, label %21, !prof !5

19:                                               ; preds = %16
  %20 = add nsw i32 %17, -1
  store i32 %20, ptr %0, align 4, !tbaa !6
  br label %lean_dec.exit

21:                                               ; preds = %16
  %.not.i = icmp eq i32 %17, 0
  br i1 %.not.i, label %lean_dec.exit, label %22

22:                                               ; preds = %21
  tail call void @lean_dec_ref_cold(ptr noundef nonnull %0) #5
  br label %lean_dec.exit

lean_dec.exit:                                    ; preds = %22, %21, %19, %13
  %23 = load ptr, ptr @l_Int_Linear_Expr_toPoly_x27___closed__1, align 8, !tbaa !11
  br label %24

24:                                               ; preds = %lean_dec.exit, %11
  %.0 = phi ptr [ %12, %11 ], [ %23, %lean_dec.exit ]
  ret ptr %.0
}